target datalayout = "e-m:e-p270:32:32-p271:32:32-p272:64:64-i64:64-i128:128-f80:128-n8:16:32:64-S128"
target triple = "x86_64-unknown-linux-gnu"

%struct.QemuMutex = type { %union.pthread_mutex_t, i8 }
%union.pthread_mutex_t = type { %struct.__pthread_mutex_s }
%struct.__pthread_mutex_s = type { i32, i32, i32, i32, i32, i16, i16, %struct.__pthread_internal_list }
%struct.__pthread_internal_list = type { ptr, ptr }
%struct.QTailQLink = type { ptr, ptr }
%struct.CoQueue = type { %struct.anon.8 }
%struct.anon.8 = type { ptr, ptr }
%struct.MirrorBlockJob = type { %struct.BlockJob, ptr, ptr, ptr, ptr, ptr, ptr, ptr, i8, i32, i8, i32, i32, i32, i8, i8, i64, i64, i64, ptr, ptr, ptr, ptr, %struct.anon.14, i32, i64, ptr, i32, i64, %union.anon.15, i32, i8, i32, i32, i8, i32, i64, i8, i8 }
%struct.BlockJob = type { %struct.Job, i32, i64, %struct.RateLimit, ptr, %struct.Notifier, %struct.Notifier, %struct.Notifier, %struct.Notifier, %struct.Notifier, ptr }
%struct.Job = type { ptr, ptr, ptr, i8, i8, ptr, ptr, %struct.ProgressMeter, ptr, i32, i32, %struct.QEMUTimer, i32, i8, i8, i8, i8, i8, i8, i32, ptr, %struct.NotifierList, %struct.NotifierList, %struct.NotifierList, %struct.NotifierList, %struct.NotifierList, %struct.anon.11, ptr, %struct.anon.12 }
%struct.ProgressMeter = type { i64, i64, %struct.QemuMutex }
%struct.QEMUTimer = type { i64, ptr, ptr, ptr, ptr, i32, i32 }
%struct.NotifierList = type { %struct.anon.10 }
%struct.anon.10 = type { ptr }
%struct.anon.11 = type { ptr, ptr }
%struct.anon.12 = type { ptr, ptr }
%struct.RateLimit = type { %struct.QemuMutex, i64, i64, i64, i64, i64 }
%struct.Notifier = type { ptr, %struct.anon.13 }
%struct.anon.13 = type { ptr, ptr }
%struct.anon.14 = type { ptr, ptr }
%union.anon.15 = type { %struct.QTailQLink }
%struct.QEMUIOVector = type { ptr, i32, %union.anon.18 }
%union.anon.18 = type { %struct.anon.19 }
%struct.anon.19 = type { i32, %struct.iovec }
%struct.iovec = type { ptr, i64 }
%struct.MirrorOp = type { ptr, %struct.QEMUIOVector, i64, i64, ptr, i8, i8, i8, %struct.CoQueue, ptr, ptr, %union.anon.21 }
%union.anon.21 = type { %struct.QTailQLink }
%struct.timeval = type { i64, i64 }
%struct.MirrorBuffer = type { %struct.anon.22 }
%struct.anon.22 = type { ptr }

@trace_events_enabled_count = external global i32, align 4
@message_with_timestamp = external global i8, align 1
@qemu_loglevel = external global i32, align 4
@_TRACE_MIRROR_ITERATION_DONE_DSTATE = external global i16, align 2
@.str.42 = private unnamed_addr constant [69 x i8] c"%d@%zu.%06zu:mirror_iteration_done s %p offset %ld bytes %lu ret %d\0A\00", align 1
@.str.43 = private unnamed_addr constant [56 x i8] c"mirror_iteration_done s %p offset %ld bytes %lu ret %d\0A\00", align 1

; Function Attrs: nounwind sspstrong uwtable
define internal zeroext i1 @qemu_loglevel_mask(i32 noundef %mask) #0 {
entry:
  %mask.addr = alloca i32, align 4
  store i32 %mask, ptr %mask.addr, align 4
  %0 = load i32, ptr @qemu_loglevel, align 4
  %1 = load i32, ptr %mask.addr, align 4
  %and = and i32 %0, %1
  %cmp = icmp ne i32 %and, 0
  ret i1 %cmp
}

; Function Attrs: nounwind sspstrong uwtable
define internal void @_nocheck__trace_mirror_iteration_done(ptr noundef %s, i64 noundef %offset, i64 noundef %bytes, i32 noundef %ret) #0 {
entry:
  %s.addr = alloca ptr, align 8
  %offset.addr = alloca i64, align 8
  %bytes.addr = alloca i64, align 8
  %ret.addr = alloca i32, align 4
  %_now = alloca %struct.timeval, align 8
  store ptr %s, ptr %s.addr, align 8
  store i64 %offset, ptr %offset.addr, align 8
  store i64 %bytes, ptr %bytes.addr, align 8
  store i32 %ret, ptr %ret.addr, align 4
  %0 = load i32, ptr @trace_events_enabled_count, align 4
  %tobool = icmp ne i32 %0, 0
  %lnot = xor i1 %tobool, true
  %lnot1 = xor i1 %lnot, true
  %lnot.ext = zext i1 %lnot1 to i32
  %conv = sext i32 %lnot.ext to i64
  %tobool2 = icmp ne i64 %conv, 0
  br i1 %tobool2, label %land.lhs.true, label %if.end11

land.lhs.true:                                    ; preds = %entry
  %1 = load i16, ptr @_TRACE_MIRROR_ITERATION_DONE_DSTATE, align 2
  %conv3 = zext i16 %1 to i32
  %tobool4 = icmp ne i32 %conv3, 0
  br i1 %tobool4, label %land.lhs.true5, label %if.end11

land.lhs.true5:                                   ; preds = %land.lhs.true
  %call = call zeroext i1 @qemu_loglevel_mask(i32 noundef 32768)
  br i1 %call, label %if.then, label %if.end11

if.then:                                          ; preds = %land.lhs.true5
  %2 = load i8, ptr @message_with_timestamp, align 1
  %tobool7 = trunc i8 %2 to i1
  br i1 %tobool7, label %if.then8, label %if.else

if.then8:                                         ; preds = %if.then
  %call9 = call i32 @gettimeofday(ptr noundef %_now, ptr noundef null) #12
  %call10 = call i32 @qemu_get_thread_id()
  %tv_sec = getelementptr inbounds %struct.timeval, ptr %_now, i32 0, i32 0
  %3 = load i64, ptr %tv_sec, align 8
  %tv_usec = getelementptr inbounds %struct.timeval, ptr %_now, i32 0, i32 1
  %4 = load i64, ptr %tv_usec, align 8
  %5 = load ptr, ptr %s.addr, align 8
  %6 = load i64, ptr %offset.addr, align 8
  %7 = load i64, ptr %bytes.addr, align 8
  %8 = load i32, ptr %ret.addr, align 4
  call void (ptr, ...) @qemu_log(ptr noundef @.str.42, i32 noundef %call10, i64 noundef %3, i64 noundef %4, ptr noundef %5, i64 noundef %6, i64 noundef %7, i32 noundef %8)
  br label %if.end

if.else:                                          ; preds = %if.then
  %9 = load ptr, ptr %s.addr, align 8
  %10 = load i64, ptr %offset.addr, align 8
  %11 = load i64, ptr %bytes.addr, align 8
  %12 = load i32, ptr %ret.addr, align 4
  call void (ptr, ...) @qemu_log(ptr noundef @.str.43, ptr noundef %9, i64 noundef %10, i64 noundef %11, i32 noundef %12)
  br label %if.end

if.end:                                           ; preds = %if.else, %if.then8
  br label %if.end11

if.end11:                                         ; preds = %if.end, %land.lhs.true5, %land.lhs.true, %entry
  ret void
}

; Function Attrs: nounwind sspstrong uwtable
define internal void @trace_mirror_iteration_done(ptr noundef %s, i64 noundef %offset, i64 noundef %bytes, i32 noundef %ret) #0 {
entry:
  %s.addr = alloca ptr, align 8
  %offset.addr = alloca i64, align 8
  %bytes.addr = alloca i64, align 8
  %ret.addr = alloca i32, align 4
  store ptr %s, ptr %s.addr, align 8
  store i64 %offset, ptr %offset.addr, align 8
  store i64 %bytes, ptr %bytes.addr, align 8
  store i32 %ret, ptr %ret.addr, align 4
  %0 = load ptr, ptr %s.addr, align 8
  %1 = load i64, ptr %offset.addr, align 8
  %2 = load i64, ptr %bytes.addr, align 8
  %3 = load i32, ptr %ret.addr, align 4
  call void @_nocheck__trace_mirror_iteration_done(ptr noundef %0, i64 noundef %1, i64 noundef %2, i32 noundef %3)
  ret void
}

; Function Attrs: nounwind sspstrong uwtable
define internal void @mirror_iteration_done(ptr noundef %op, i32 noundef %ret) #0 {
entry:
  %op.addr = alloca ptr, align 8
  %ret.addr = alloca i32, align 4
  %s = alloca ptr, align 8
  %iov = alloca ptr, align 8
  %chunk_num = alloca i64, align 8
  %i = alloca i32, align 4
  %nb_chunks = alloca i32, align 4
  %buf = alloca ptr, align 8
  store ptr %op, ptr %op.addr, align 8
  store i32 %ret, ptr %ret.addr, align 4
  %0 = load ptr, ptr %op.addr, align 8
  %s1 = getelementptr inbounds %struct.MirrorOp, ptr %0, i32 0, i32 0
  %1 = load ptr, ptr %s1, align 8
  store ptr %1, ptr %s, align 8
  %2 = load ptr, ptr %s, align 8
  %3 = load ptr, ptr %op.addr, align 8
  %offset = getelementptr inbounds %struct.MirrorOp, ptr %3, i32 0, i32 2
  %4 = load i64, ptr %offset, align 8
  %5 = load ptr, ptr %op.addr, align 8
  %bytes = getelementptr inbounds %struct.MirrorOp, ptr %5, i32 0, i32 3
  %6 = load i64, ptr %bytes, align 8
  %7 = load i32, ptr %ret.addr, align 4
  call void @trace_mirror_iteration_done(ptr noundef %2, i64 noundef %4, i64 noundef %6, i32 noundef %7)
  %8 = load ptr, ptr %s, align 8
  %in_flight = getelementptr inbounds %struct.MirrorBlockJob, ptr %8, i32 0, i32 27
  %9 = load i32, ptr %in_flight, align 8
  %dec = add i32 %9, -1
  store i32 %dec, ptr %in_flight, align 8
  %10 = load ptr, ptr %op.addr, align 8
  %bytes2 = getelementptr inbounds %struct.MirrorOp, ptr %10, i32 0, i32 3
  %11 = load i64, ptr %bytes2, align 8
  %12 = load ptr, ptr %s, align 8
  %bytes_in_flight = getelementptr inbounds %struct.MirrorBlockJob, ptr %12, i32 0, i32 28
  %13 = load i64, ptr %bytes_in_flight, align 8
  %sub = sub i64 %13, %11
  store i64 %sub, ptr %bytes_in_flight, align 8
  %14 = load ptr, ptr %op.addr, align 8
  %qiov = getelementptr inbounds %struct.MirrorOp, ptr %14, i32 0, i32 1
  %iov3 = getelementptr inbounds %struct.QEMUIOVector, ptr %qiov, i32 0, i32 0
  %15 = load ptr, ptr %iov3, align 8
  store ptr %15, ptr %iov, align 8
  store i32 0, ptr %i, align 4
  br label %for.cond

for.cond:                                         ; preds = %for.inc, %entry
  %16 = load i32, ptr %i, align 4
  %17 = load ptr, ptr %op.addr, align 8
  %qiov4 = getelementptr inbounds %struct.MirrorOp, ptr %17, i32 0, i32 1
  %niov = getelementptr inbounds %struct.QEMUIOVector, ptr %qiov4, i32 0, i32 1
  %18 = load i32, ptr %niov, align 8
  %cmp = icmp slt i32 %16, %18
  br i1 %cmp, label %for.body, label %for.end

for.body:                                         ; preds = %for.cond
  %19 = load ptr, ptr %iov, align 8
  %20 = load i32, ptr %i, align 4
  %idxprom = sext i32 %20 to i64
  %arrayidx = getelementptr %struct.iovec, ptr %19, i64 %idxprom
  %iov_base = getelementptr inbounds %struct.iovec, ptr %arrayidx, i32 0, i32 0
  %21 = load ptr, ptr %iov_base, align 8
  store ptr %21, ptr %buf, align 8
  br label %do.body

do.body:                                          ; preds = %for.body
  %22 = load ptr, ptr %buf, align 8
  %next = getelementptr inbounds %struct.MirrorBuffer, ptr %22, i32 0, i32 0
  %sqe_next = getelementptr inbounds %struct.anon.22, ptr %next, i32 0, i32 0
  store ptr null, ptr %sqe_next, align 8
  %23 = load ptr, ptr %buf, align 8
  %24 = load ptr, ptr %s, align 8
  %buf_free = getelementptr inbounds %struct.MirrorBlockJob, ptr %24, i32 0, i32 23
  %sqh_last = getelementptr inbounds %struct.anon.14, ptr %buf_free, i32 0, i32 1
  %25 = load ptr, ptr %sqh_last, align 8
  store ptr %23, ptr %25, align 8
  %26 = load ptr, ptr %buf, align 8
  %next5 = getelementptr inbounds %struct.MirrorBuffer, ptr %26, i32 0, i32 0
  %sqe_next6 = getelementptr inbounds %struct.anon.22, ptr %next5, i32 0, i32 0
  %27 = load ptr, ptr %s, align 8
  %buf_free7 = getelementptr inbounds %struct.MirrorBlockJob, ptr %27, i32 0, i32 23
  %sqh_last8 = getelementptr inbounds %struct.anon.14, ptr %buf_free7, i32 0, i32 1
  store ptr %sqe_next6, ptr %sqh_last8, align 8
  br label %do.end

do.end:                                           ; preds = %do.body
  %28 = load ptr, ptr %s, align 8
  %buf_free_count = getelementptr inbounds %struct.MirrorBlockJob, ptr %28, i32 0, i32 24
  %29 = load i32, ptr %buf_free_count, align 8
  %inc = add i32 %29, 1
  store i32 %inc, ptr %buf_free_count, align 8
  br label %for.inc

for.inc:                                          ; preds = %do.end
  %30 = load i32, ptr %i, align 4
  %inc9 = add i32 %30, 1
  store i32 %inc9, ptr %i, align 4
  br label %for.cond, !llvm.loop !27

for.end:                                          ; preds = %for.cond
  %31 = load ptr, ptr %op.addr, align 8
  %offset10 = getelementptr inbounds %struct.MirrorOp, ptr %31, i32 0, i32 2
  %32 = load i64, ptr %offset10, align 8
  %33 = load ptr, ptr %s, align 8
  %granularity = getelementptr inbounds %struct.MirrorBlockJob, ptr %33, i32 0, i32 16
  %34 = load i64, ptr %granularity, align 8
  %div = sdiv i64 %32, %34
  store i64 %div, ptr %chunk_num, align 8
  %35 = load ptr, ptr %op.addr, align 8
  %bytes11 = getelementptr inbounds %struct.MirrorOp, ptr %35, i32 0, i32 3
  %36 = load i64, ptr %bytes11, align 8
  %37 = load ptr, ptr %s, align 8
  %granularity12 = getelementptr inbounds %struct.MirrorBlockJob, ptr %37, i32 0, i32 16
  %38 = load i64, ptr %granularity12, align 8
  %add = add i64 %36, %38
  %sub13 = sub i64 %add, 1
  %39 = load ptr, ptr %s, align 8
  %granularity14 = getelementptr inbounds %struct.MirrorBlockJob, ptr %39, i32 0, i32 16
  %40 = load i64, ptr %granularity14, align 8
  %div15 = udiv i64 %sub13, %40
  %conv = trunc i64 %div15 to i32
  store i32 %conv, ptr %nb_chunks, align 4
  %41 = load ptr, ptr %s, align 8
  %in_flight_bitmap = getelementptr inbounds %struct.MirrorBlockJob, ptr %41, i32 0, i32 26
  %42 = load ptr, ptr %in_flight_bitmap, align 8
  %43 = load i64, ptr %chunk_num, align 8
  %44 = load i32, ptr %nb_chunks, align 4
  %conv16 = sext i32 %44 to i64
  call void @bitmap_clear(ptr noundef %42, i64 noundef %43, i64 noundef %conv16)
  br label %do.body17

do.body17:                                        ; preds = %for.end
  %45 = load ptr, ptr %op.addr, align 8
  %next18 = getelementptr inbounds %struct.MirrorOp, ptr %45, i32 0, i32 11
  %46 = load ptr, ptr %next18, align 8
  %cmp19 = icmp ne ptr %46, null
  br i1 %cmp19, label %if.then, label %if.else

if.then:                                          ; preds = %do.body17
  %47 = load ptr, ptr %op.addr, align 8
  %next21 = getelementptr inbounds %struct.MirrorOp, ptr %47, i32 0, i32 11
  %tql_prev = getelementptr inbounds %struct.QTailQLink, ptr %next21, i32 0, i32 1
  %48 = load ptr, ptr %tql_prev, align 8
  %49 = load ptr, ptr %op.addr, align 8
  %next22 = getelementptr inbounds %struct.MirrorOp, ptr %49, i32 0, i32 11
  %50 = load ptr, ptr %next22, align 8
  %next23 = getelementptr inbounds %struct.MirrorOp, ptr %50, i32 0, i32 11
  %tql_prev24 = getelementptr inbounds %struct.QTailQLink, ptr %next23, i32 0, i32 1
  store ptr %48, ptr %tql_prev24, align 8
  br label %if.end

if.else:                                          ; preds = %do.body17
  %51 = load ptr, ptr %op.addr, align 8
  %next25 = getelementptr inbounds %struct.MirrorOp, ptr %51, i32 0, i32 11
  %tql_prev26 = getelementptr inbounds %struct.QTailQLink, ptr %next25, i32 0, i32 1
  %52 = load ptr, ptr %tql_prev26, align 8
  %53 = load ptr, ptr %s, align 8
  %ops_in_flight = getelementptr inbounds %struct.MirrorBlockJob, ptr %53, i32 0, i32 29
  %tql_prev27 = getelementptr inbounds %struct.QTailQLink, ptr %ops_in_flight, i32 0, i32 1
  store ptr %52, ptr %tql_prev27, align 8
  br label %if.end

if.end:                                           ; preds = %if.else, %if.then
  %54 = load ptr, ptr %op.addr, align 8
  %next28 = getelementptr inbounds %struct.MirrorOp, ptr %54, i32 0, i32 11
  %55 = load ptr, ptr %next28, align 8
  %56 = load ptr, ptr %op.addr, align 8
  %next29 = getelementptr inbounds %struct.MirrorOp, ptr %56, i32 0, i32 11
  %tql_prev30 = getelementptr inbounds %struct.QTailQLink, ptr %next29, i32 0, i32 1
  %57 = load ptr, ptr %tql_prev30, align 8
  %tql_next = getelementptr inbounds %struct.QTailQLink, ptr %57, i32 0, i32 0
  store ptr %55, ptr %tql_next, align 8
  %58 = load ptr, ptr %op.addr, align 8
  %next31 = getelementptr inbounds %struct.MirrorOp, ptr %58, i32 0, i32 11
  %tql_prev32 = getelementptr inbounds %struct.QTailQLink, ptr %next31, i32 0, i32 1
  store ptr null, ptr %tql_prev32, align 8
  %59 = load ptr, ptr %op.addr, align 8
  %next33 = getelementptr inbounds %struct.MirrorOp, ptr %59, i32 0, i32 11
  %tql_next34 = getelementptr inbounds %struct.QTailQLink, ptr %next33, i32 0, i32 0
  store ptr null, ptr %tql_next34, align 8
  %60 = load ptr, ptr %op.addr, align 8
  %next35 = getelementptr inbounds %struct.MirrorOp, ptr %60, i32 0, i32 11
  store ptr null, ptr %next35, align 8
  br label %do.end36

do.end36:                                         ; preds = %if.end
  %61 = load i32, ptr %ret.addr, align 4
  %cmp37 = icmp sge i32 %61, 0
  br i1 %cmp37, label %if.then39, label %if.end48

if.then39:                                        ; preds = %do.end36
  %62 = load ptr, ptr %s, align 8
  %cow_bitmap = getelementptr inbounds %struct.MirrorBlockJob, ptr %62, i32 0, i32 19
  %63 = load ptr, ptr %cow_bitmap, align 8
  %tobool = icmp ne ptr %63, null
  br i1 %tobool, label %if.then40, label %if.end43

if.then40:                                        ; preds = %if.then39
  %64 = load ptr, ptr %s, align 8
  %cow_bitmap41 = getelementptr inbounds %struct.MirrorBlockJob, ptr %64, i32 0, i32 19
  %65 = load ptr, ptr %cow_bitmap41, align 8
  %66 = load i64, ptr %chunk_num, align 8
  %67 = load i32, ptr %nb_chunks, align 4
  %conv42 = sext i32 %67 to i64
  call void @bitmap_set(ptr noundef %65, i64 noundef %66, i64 noundef %conv42)
  br label %if.end43

if.end43:                                         ; preds = %if.then40, %if.then39
  %68 = load ptr, ptr %s, align 8
  %initial_zeroing_ongoing = getelementptr inbounds %struct.MirrorBlockJob, ptr %68, i32 0, i32 34
  %69 = load i8, ptr %initial_zeroing_ongoing, align 8
  %tobool44 = trunc i8 %69 to i1
  br i1 %tobool44, label %if.end47, label %if.then45

if.then45:                                        ; preds = %if.end43
  %70 = load ptr, ptr %s, align 8
  %common = getelementptr inbounds %struct.MirrorBlockJob, ptr %70, i32 0, i32 0
  %job = getelementptr inbounds %struct.BlockJob, ptr %common, i32 0, i32 0
  %71 = load ptr, ptr %op.addr, align 8
  %bytes46 = getelementptr inbounds %struct.MirrorOp, ptr %71, i32 0, i32 3
  %72 = load i64, ptr %bytes46, align 8
  call void @job_progress_update(ptr noundef %job, i64 noundef %72)
  br label %if.end47

if.end47:                                         ; preds = %if.then45, %if.end43
  br label %if.end48

if.end48:                                         ; preds = %if.end47, %do.end36
  %73 = load ptr, ptr %op.addr, align 8
  %qiov49 = getelementptr inbounds %struct.MirrorOp, ptr %73, i32 0, i32 1
  call void @qemu_iovec_destroy(ptr noundef %qiov49)
  %74 = load ptr, ptr %op.addr, align 8
  %waiting_requests = getelementptr inbounds %struct.MirrorOp, ptr %74, i32 0, i32 8
  call void @qemu_co_queue_restart_all(ptr noundef %waiting_requests)
  %75 = load ptr, ptr %op.addr, align 8
  call void @g_free(ptr noundef %75)
  ret void
}