; Function Attrs: nounwind sspstrong uwtable
define internal void @mirror_iteration_done(ptr noundef %op, i32 noundef %ret) #0 {
entry:
  %_now.i.i = alloca %struct.timeval, align 8
  %0 = load ptr, ptr %op, align 8
  %offset = getelementptr inbounds nuw i8, ptr %op, i64 48
  %1 = load i64, ptr %offset, align 8
  %bytes = getelementptr inbounds nuw i8, ptr %op, i64 56
  %2 = load i64, ptr %bytes, align 8
  call void @llvm.lifetime.start.p0(i64 16, ptr nonnull %_now.i.i)
  %3 = load i32, ptr @trace_events_enabled_count, align 4
  %tobool.i.i = icmp ne i32 %3, 0
  %4 = load i16, ptr @_TRACE_MIRROR_ITERATION_DONE_DSTATE, align 2
  %tobool4.i.i = icmp ne i16 %4, 0
  %or.cond.i.i = select i1 %tobool.i.i, i1 %tobool4.i.i, i1 false
  br i1 %or.cond.i.i, label %land.lhs.true5.i.i, label %trace_mirror_iteration_done.exit

land.lhs.true5.i.i:                               ; preds = %entry
  %5 = load i32, ptr @qemu_loglevel, align 4
  %and.i.i.i = and i32 %5, 32768
  %cmp.i.not.i.i = icmp eq i32 %and.i.i.i, 0
  br i1 %cmp.i.not.i.i, label %trace_mirror_iteration_done.exit, label %if.then.i.i

if.then.i.i:                                      ; preds = %land.lhs.true5.i.i
  %6 = load i8, ptr @message_with_timestamp, align 1
  %tobool7.i.i = trunc i8 %6 to i1
  br i1 %tobool7.i.i, label %if.then8.i.i, label %if.else.i.i

if.then8.i.i:                                     ; preds = %if.then.i.i
  %call9.i.i = call i32 @gettimeofday(ptr noundef nonnull %_now.i.i, ptr noundef null) #12
  %call10.i.i = tail call i32 @qemu_get_thread_id() #12
  %7 = load i64, ptr %_now.i.i, align 8
  %tv_usec.i.i = getelementptr inbounds nuw i8, ptr %_now.i.i, i64 8
  %8 = load i64, ptr %tv_usec.i.i, align 8
  tail call void (ptr, ...) @qemu_log(ptr noundef nonnull @.str.42, i32 noundef %call10.i.i, i64 noundef %7, i64 noundef %8, ptr noundef %0, i64 noundef %1, i64 noundef %2, i32 noundef %ret) #12
  br label %trace_mirror_iteration_done.exit

if.else.i.i:                                      ; preds = %if.then.i.i
  tail call void (ptr, ...) @qemu_log(ptr noundef nonnull @.str.43, ptr noundef %0, i64 noundef %1, i64 noundef %2, i32 noundef %ret) #12
  br label %trace_mirror_iteration_done.exit

trace_mirror_iteration_done.exit:                 ; preds = %entry, %land.lhs.true5.i.i, %if.then8.i.i, %if.else.i.i
  call void @llvm.lifetime.end.p0(i64 16, ptr nonnull %_now.i.i)
  %in_flight = getelementptr inbounds nuw i8, ptr %0, i64 704
  %9 = load i32, ptr %in_flight, align 8
  %dec = add i32 %9, -1
  store i32 %dec, ptr %in_flight, align 8
  %10 = load i64, ptr %bytes, align 8
  %bytes_in_flight = getelementptr inbounds nuw i8, ptr %0, i64 712
  %11 = load i64, ptr %bytes_in_flight, align 8
  %sub = sub i64 %11, %10
  store i64 %sub, ptr %bytes_in_flight, align 8
  %qiov = getelementptr inbounds nuw i8, ptr %op, i64 8
  %12 = load ptr, ptr %qiov, align 8
  %niov = getelementptr inbounds nuw i8, ptr %op, i64 16
  %13 = load i32, ptr %niov, align 8
  %cmp43 = icmp sgt i32 %13, 0
  br i1 %cmp43, label %for.body.lr.ph, label %for.end

for.body.lr.ph:                                   ; preds = %trace_mirror_iteration_done.exit
  %sqh_last = getelementptr inbounds nuw i8, ptr %0, i64 672
  %buf_free_count = getelementptr inbounds nuw i8, ptr %0, i64 680
  br label %for.body

for.body:                                         ; preds = %for.body.lr.ph, %for.body
  %indvars.iv = phi i64 [ 0, %for.body.lr.ph ], [ %indvars.iv.next, %for.body ]
  %arrayidx = getelementptr %struct.iovec, ptr %12, i64 %indvars.iv
  %14 = load ptr, ptr %arrayidx, align 8
  store ptr null, ptr %14, align 8
  %15 = load ptr, ptr %sqh_last, align 8
  store ptr %14, ptr %15, align 8
  store ptr %14, ptr %sqh_last, align 8
  %16 = load i32, ptr %buf_free_count, align 8
  %inc = add i32 %16, 1
  store i32 %inc, ptr %buf_free_count, align 8
  %indvars.iv.next = add nuw nsw i64 %indvars.iv, 1
  %17 = load i32, ptr %niov, align 8
  %18 = sext i32 %17 to i64
  %cmp = icmp slt i64 %indvars.iv.next, %18
  br i1 %cmp, label %for.body, label %for.end, !llvm.loop !20

for.end:                                          ; preds = %for.body, %trace_mirror_iteration_done.exit
  %19 = load i64, ptr %offset, align 8
  %granularity = getelementptr inbounds nuw i8, ptr %0, i64 608
  %20 = load i64, ptr %granularity, align 8
  %div = sdiv i64 %19, %20
  %21 = load i64, ptr %bytes, align 8
  %add = add i64 %20, -1
  %sub13 = add i64 %add, %21
  %div15 = udiv i64 %sub13, %20
  %in_flight_bitmap = getelementptr inbounds nuw i8, ptr %0, i64 696
  %22 = load ptr, ptr %in_flight_bitmap, align 8
  %sext = shl i64 %div15, 32
  %conv16 = ashr exact i64 %sext, 32
  tail call void @bitmap_clear(ptr noundef %22, i64 noundef %div, i64 noundef %conv16) #12
  %next18 = getelementptr inbounds nuw i8, ptr %op, i64 112
  %23 = load ptr, ptr %next18, align 8
  %cmp19.not = icmp eq ptr %23, null
  %tql_prev26 = getelementptr inbounds nuw i8, ptr %op, i64 120
  %24 = load ptr, ptr %tql_prev26, align 8
  br i1 %cmp19.not, label %if.else, label %if.then

if.then:                                          ; preds = %for.end
  %tql_prev24 = getelementptr inbounds nuw i8, ptr %23, i64 120
  store ptr %24, ptr %tql_prev24, align 8
  br label %if.end

if.else:                                          ; preds = %for.end
  %tql_prev27 = getelementptr inbounds nuw i8, ptr %0, i64 728
  store ptr %24, ptr %tql_prev27, align 8
  br label %if.end

if.end:                                           ; preds = %if.else, %if.then
  %25 = load ptr, ptr %next18, align 8
  store ptr %25, ptr %24, align 8
  %cmp37 = icmp sgt i32 %ret, -1
  tail call void @llvm.memset.p0.i64(ptr noundef nonnull align 8 dereferenceable(16) %next18, i8 0, i64 16, i1 false)
  br i1 %cmp37, label %if.then39, label %if.end48

if.then39:                                        ; preds = %if.end
  %cow_bitmap = getelementptr inbounds nuw i8, ptr %0, i64 632
  %26 = load ptr, ptr %cow_bitmap, align 8
  %tobool.not = icmp eq ptr %26, null
  br i1 %tobool.not, label %if.end43, label %if.then40

if.then40:                                        ; preds = %if.then39
  tail call void @bitmap_set(ptr noundef nonnull %26, i64 noundef %div, i64 noundef %conv16) #12
  br label %if.end43

if.end43:                                         ; preds = %if.then40, %if.then39
  %initial_zeroing_ongoing = getelementptr inbounds nuw i8, ptr %0, i64 752
  %27 = load i8, ptr %initial_zeroing_ongoing, align 8
  %tobool44 = trunc i8 %27 to i1
  br i1 %tobool44, label %if.end48, label %if.then45

if.then45:                                        ; preds = %if.end43
  %28 = load i64, ptr %bytes, align 8
  tail call void @job_progress_update(ptr noundef nonnull %0, i64 noundef %28) #12
  br label %if.end48

if.end48:                                         ; preds = %if.end43, %if.then45, %if.end
  tail call void @qemu_iovec_destroy(ptr noundef nonnull %qiov) #12
  %waiting_requests = getelementptr inbounds nuw i8, ptr %op, i64 80
  tail call void @qemu_co_queue_restart_all(ptr noundef nonnull %waiting_requests) #12
  tail call void @g_free(ptr noundef nonnull %op) #12
  ret void
}